(dp0
S'scaffold_15'
p1
(lp2
S'ptg000735l:B'
p3
aS'ptg000735l:E'
p4
asS'scaffold_14'
p5
(lp6
S'ptg000900l:B'
p7
aS'ptg000900l:E'
p8
asS'scaffold_17'
p9
(lp10
S'ptg000192l:B'
p11
aS'ptg000192l:E'
p12
asS'scaffold_16'
p13
(lp14
S'ptg001207l:B'
p15
aS'ptg001207l:E'
p16
asS'scaffold_11'
p17
(lp18
S'ptg000080l:B'
p19
aS'ptg000080l:E'
p20
asS'scaffold_10'
p21
(lp22
S'ptg000860l:B'
p23
aS'ptg000860l:E'
p24
asS'scaffold_13'
p25
(lp26
S'ptg000229l:B'
p27
aS'ptg000229l:E'
p28
asS'scaffold_12'
p29
(lp30
S'ptg000182l:B'
p31
aS'ptg000182l:E'
p32
asS'scaffold_19'
p33
(lp34
S'ptg000190c:B'
p35
aS'ptg000190c:E'
p36
asS'scaffold_18'
p37
(lp38
S'ptg000311l:B'
p39
aS'ptg000311l:E'
p40
asS'scaffold_1'
p41
(lp42
S'ptg000952l:B'
p43
aS'ptg000952l:E'
p44
asS'scaffold_3'
p45
(lp46
S'ptg001381l:B'
p47
aS'ptg001381l:E'
p48
asS'scaffold_2'
p49
(lp50
S'ptg000245l:B'
p51
aS'ptg000245l:E'
p52
asS'scaffold_5'
p53
(lp54
S'ptg001095l:B'
p55
aS'ptg001095l:E'
p56
asS'scaffold_4'
p57
(lp58
S'ptg000256l:B'
p59
aS'ptg000256l:E'
p60
asS'scaffold_7'
p61
(lp62
S'ptg000289l:B'
p63
aS'ptg000289l:E'
p64
asS'scaffold_6'
p65
(lp66
S'ptg000207l:B'
p67
aS'ptg000207l:E'
p68
asS'scaffold_9'
p69
(lp70
S'ptg000439l:B'
p71
aS'ptg000439l:E'
p72
asS'scaffold_8'
p73
(lp74
S'ptg000422l:B'
p75
aS'ptg000422l:E'
p76
asS'scaffold_20'
p77
(lp78
S'ptg000724l:B'
p79
aS'ptg000724l:E'
p80
asS'scaffold_21'
p81
(lp82
S'ptg000707l:B'
p83
aS'ptg000707l:E'
p84
asS'scaffold_22'
p85
(lp86
S'ptg000520l:B'
p87
aS'ptg000520l:E'
p88
as.